; Function Attrs: nounwind uwtable
define hidden void @zim_SQLite3Stmt_paramCount(ptr noundef readonly captures(none) %0, ptr noundef writeonly captures(none) %1) #0 {
  %3 = getelementptr inbounds nuw i8, ptr %0, i64 32
  %4 = load ptr, ptr %3, align 8, !tbaa !8
  %5 = getelementptr inbounds i8, ptr %4, i64 -32
  %6 = getelementptr inbounds nuw i8, ptr %0, i64 44
  %7 = load i32, ptr %6, align 4, !tbaa !8
  %.not = icmp eq i32 %7, 0
  br i1 %.not, label %9, label %8, !prof !75

8:                                                ; preds = %2
  tail call void @zend_wrong_parameters_none_error() #17
  br label %28

9:                                                ; preds = %2
  %10 = getelementptr inbounds i8, ptr %4, i64 -24
  %11 = load ptr, ptr %10, align 8, !tbaa !84
  %.not10 = icmp eq ptr %11, null
  br i1 %.not10, label %16, label %12

12:                                               ; preds = %9
  %13 = getelementptr inbounds i8, ptr %4, i64 -16
  %14 = load i8, ptr %13, align 8, !tbaa !88, !range !55, !noundef !56
  %15 = trunc nuw i8 %14 to i1
  br i1 %15, label %19, label %16

16:                                               ; preds = %12, %9
  tail call void (ptr, ptr, ...) @zend_throw_error(ptr noundef null, ptr noundef nonnull @.str.8) #17
  %17 = load ptr, ptr getelementptr inbounds nuw (i8, ptr @executor_globals, i64 960), align 8, !tbaa !9
  %18 = icmp ne ptr %17, null
  tail call void @llvm.assume(i1 %18)
  br label %28

19:                                               ; preds = %12
  %20 = load ptr, ptr %5, align 8, !tbaa !100
  %.not11 = icmp eq ptr %20, null
  br i1 %.not11, label %21, label %24

21:                                               ; preds = %19
  tail call void (ptr, ptr, ...) @zend_throw_error(ptr noundef null, ptr noundef nonnull @.str.38) #17
  %22 = load ptr, ptr getelementptr inbounds nuw (i8, ptr @executor_globals, i64 960), align 8, !tbaa !9
  %23 = icmp ne ptr %22, null
  tail call void @llvm.assume(i1 %23)
  br label %28

24:                                               ; preds = %19
  %25 = tail call i32 @sqlite3_bind_parameter_count(ptr noundef nonnull %20) #17
  %26 = sext i32 %25 to i64
  store i64 %26, ptr %1, align 8, !tbaa !8
  %27 = getelementptr inbounds nuw i8, ptr %1, i64 8
  store i32 4, ptr %27, align 8, !tbaa !8
  br label %28

28:                                               ; preds = %24, %21, %16, %8
  ret void
}